; Function Attrs: nounwind uwtable
define ptr @l_Lean_Expr_headNumArgs___boxed(ptr noundef %0) local_unnamed_addr #0 {
  br label %.outer.i.i

.outer.i.i:                                       ; preds = %.outer.i.i.backedge, %1
  %.012.ph.i.i = phi ptr [ inttoptr (i64 1 to ptr), %1 ], [ %.012.ph.i.i.be, %.outer.i.i.backedge ]
  %.0.ph.i.i = phi ptr [ %0, %1 ], [ %13, %.outer.i.i.backedge ]
  br label %2

2:                                                ; preds = %.backedge.i.i, %.outer.i.i
  %.0.i.i = phi ptr [ %.0.ph.i.i, %.outer.i.i ], [ %.0.be.i.i, %.backedge.i.i ]
  %3 = ptrtoint ptr %.0.i.i to i64
  %4 = and i64 %3, 1
  %.not.i13.i.i = icmp eq i64 %4, 0
  br i1 %.not.i13.i.i, label %8, label %5

5:                                                ; preds = %2
  %6 = lshr i64 %3, 1
  %7 = trunc i64 %6 to i32
  br label %lean_obj_tag.exit.i.i

8:                                                ; preds = %2
  %9 = getelementptr i8, ptr %.0.i.i, i64 4
  %.val.i.i.i = load i32, ptr %9, align 4
  %10 = lshr i32 %.val.i.i.i, 24
  br label %lean_obj_tag.exit.i.i

lean_obj_tag.exit.i.i:                            ; preds = %8, %5
  %.0.i14.i.i = phi i32 [ %7, %5 ], [ %10, %8 ]
  switch i32 %.0.i14.i.i, label %l_Lean_Expr_headNumArgs.exit [
    i32 5, label %11
    i32 8, label %34
    i32 10, label %.backedge.i.i
  ]

11:                                               ; preds = %lean_obj_tag.exit.i.i
  %12 = getelementptr inbounds nuw i8, ptr %.0.i.i, i64 8
  %13 = load ptr, ptr %12, align 8, !tbaa !4
  %14 = ptrtoint ptr %.012.ph.i.i to i64
  %15 = and i64 %14, 1
  %.not.i.i = icmp eq i64 %15, 0
  br i1 %.not.i.i, label %26, label %16, !prof !13

16:                                               ; preds = %11
  %17 = lshr i64 %14, 1
  %18 = add nuw i64 %17, 1
  %19 = icmp sgt i64 %18, -1
  br i1 %19, label %20, label %24, !prof !12

20:                                               ; preds = %16
  %21 = shl nuw i64 %18, 1
  %22 = or disjoint i64 %21, 1
  %23 = inttoptr i64 %22 to ptr
  br label %.outer.i.i.backedge

24:                                               ; preds = %16
  %25 = tail call ptr @lean_big_usize_to_nat(i64 noundef range(i64 0, -1) %18) #3
  br label %.outer.i.i.backedge

26:                                               ; preds = %11
  %27 = tail call ptr @lean_nat_big_add(ptr noundef %.012.ph.i.i, ptr noundef nonnull inttoptr (i64 3 to ptr)) #3
  %28 = load i32, ptr %.012.ph.i.i, align 4, !tbaa !9
  %29 = icmp sgt i32 %28, 1
  br i1 %29, label %30, label %32, !prof !12

30:                                               ; preds = %26
  %31 = add nsw i32 %28, -1
  store i32 %31, ptr %.012.ph.i.i, align 4, !tbaa !9
  br label %.outer.i.i.backedge

32:                                               ; preds = %26
  %.not.i.i.i = icmp eq i32 %28, 0
  br i1 %.not.i.i.i, label %.outer.i.i.backedge, label %33

33:                                               ; preds = %32
  tail call void @lean_dec_ref_cold(ptr noundef nonnull %.012.ph.i.i) #3
  br label %.outer.i.i.backedge

.outer.i.i.backedge:                              ; preds = %33, %32, %30, %24, %20
  %.012.ph.i.i.be = phi ptr [ %27, %30 ], [ %27, %32 ], [ %27, %33 ], [ %25, %24 ], [ %23, %20 ]
  br label %.outer.i.i

34:                                               ; preds = %lean_obj_tag.exit.i.i
  br label %.backedge.i.i

.backedge.i.i:                                    ; preds = %34, %lean_obj_tag.exit.i.i
  %.sink.i.i = phi i64 [ 32, %34 ], [ 16, %lean_obj_tag.exit.i.i ]
  %35 = getelementptr inbounds nuw i8, ptr %.0.i.i, i64 %.sink.i.i
  %.0.be.i.i = load ptr, ptr %35, align 8, !tbaa !4
  br label %2

l_Lean_Expr_headNumArgs.exit:                     ; preds = %lean_obj_tag.exit.i.i
  %36 = ptrtoint ptr %0 to i64
  %37 = and i64 %36, 1
  %.not = icmp eq i64 %37, 0
  br i1 %.not, label %38, label %lean_dec.exit

38:                                               ; preds = %l_Lean_Expr_headNumArgs.exit
  %39 = load i32, ptr %0, align 4, !tbaa !9
  %40 = icmp sgt i32 %39, 1
  br i1 %40, label %41, label %43, !prof !12

41:                                               ; preds = %38
  %42 = add nsw i32 %39, -1
  store i32 %42, ptr %0, align 4, !tbaa !9
  br label %lean_dec.exit

43:                                               ; preds = %38
  %.not.i = icmp eq i32 %39, 0
  br i1 %.not.i, label %lean_dec.exit, label %44

44:                                               ; preds = %43
  tail call void @lean_dec_ref_cold(ptr noundef nonnull %0) #3
  br label %lean_dec.exit

lean_dec.exit:                                    ; preds = %44, %43, %41, %l_Lean_Expr_headNumArgs.exit
  ret ptr %.012.ph.i.i
}